target datalayout = "e-m:e-p270:32:32-p271:32:32-p272:64:64-i64:64-i128:128-f80:128-n8:16:32:64-S128"
target triple = "x86_64-pc-linux-gnu"

%struct.Abc_Ntk_t_ = type { i32, i32, ptr, ptr, ptr, ptr, ptr, ptr, ptr, ptr, ptr, ptr, ptr, [11 x i32], i32, i32, i32, i32, ptr, i32, ptr, ptr, i32, i32, i32, double, i32, %struct.Vec_Int_t_, ptr, ptr, ptr, ptr, ptr, float, i32, ptr, ptr, ptr, ptr, ptr, ptr, ptr, ptr, ptr, ptr, ptr, ptr, ptr, ptr, ptr, ptr, ptr, ptr, ptr, ptr, ptr }
%struct.Vec_Int_t_ = type { i32, i32, ptr }
%struct.Abc_Obj_t_ = type { ptr, ptr, i32, i32, %struct.Vec_Int_t_, %struct.Vec_Int_t_, %union.anon, %union.anon.0 }
%union.anon = type { ptr }
%union.anon.0 = type { ptr }
%struct.Vec_Ptr_t_ = type { i32, i32, ptr }

@.str.1 = private unnamed_addr constant [46 x i8] c"Abc_NtkStrash: The network check has failed.\0A\00", align 1
@.str.11 = private unnamed_addr constant [64 x i8] c"Abc_NtkTopAnd(): AIG cleanup removed %d nodes (this is a bug).\0A\00", align 1

; Function Attrs: nounwind uwtable
define internal i32 @Abc_ObjFaninC1(ptr noundef %0) #0 {
  %2 = alloca ptr, align 8
  store ptr %0, ptr %2, align 8
  %3 = load ptr, ptr %2, align 8
  %4 = getelementptr inbounds %struct.Abc_Obj_t_, ptr %3, i32 0, i32 3
  %5 = load i32, ptr %4, align 4
  %6 = lshr i32 %5, 11
  %7 = and i32 %6, 1
  ret i32 %7
}

; Function Attrs: nounwind uwtable
define internal ptr @Abc_ObjFanin1(ptr noundef %0) #0 {
  %2 = alloca ptr, align 8
  store ptr %0, ptr %2, align 8
  %3 = load ptr, ptr %2, align 8
  %4 = getelementptr inbounds %struct.Abc_Obj_t_, ptr %3, i32 0, i32 0
  %5 = load ptr, ptr %4, align 8
  %6 = getelementptr inbounds %struct.Abc_Ntk_t_, ptr %5, i32 0, i32 5
  %7 = load ptr, ptr %6, align 8
  %8 = getelementptr inbounds %struct.Vec_Ptr_t_, ptr %7, i32 0, i32 2
  %9 = load ptr, ptr %8, align 8
  %10 = load ptr, ptr %2, align 8
  %11 = getelementptr inbounds %struct.Abc_Obj_t_, ptr %10, i32 0, i32 4
  %12 = getelementptr inbounds %struct.Vec_Int_t_, ptr %11, i32 0, i32 2
  %13 = load ptr, ptr %12, align 8
  %14 = getelementptr inbounds i32, ptr %13, i64 1
  %15 = load i32, ptr %14, align 4
  %16 = sext i32 %15 to i64
  %17 = getelementptr inbounds ptr, ptr %9, i64 %16
  %18 = load ptr, ptr %17, align 8
  ret ptr %18
}

; Function Attrs: nounwind uwtable
define internal i32 @Abc_ObjFaninC0(ptr noundef %0) #0 {
  %2 = alloca ptr, align 8
  store ptr %0, ptr %2, align 8
  %3 = load ptr, ptr %2, align 8
  %4 = getelementptr inbounds %struct.Abc_Obj_t_, ptr %3, i32 0, i32 3
  %5 = load i32, ptr %4, align 4
  %6 = lshr i32 %5, 10
  %7 = and i32 %6, 1
  ret i32 %7
}

; Function Attrs: nounwind uwtable
define internal ptr @Abc_ObjFanin0(ptr noundef %0) #0 {
  %2 = alloca ptr, align 8
  store ptr %0, ptr %2, align 8
  %3 = load ptr, ptr %2, align 8
  %4 = getelementptr inbounds %struct.Abc_Obj_t_, ptr %3, i32 0, i32 0
  %5 = load ptr, ptr %4, align 8
  %6 = getelementptr inbounds %struct.Abc_Ntk_t_, ptr %5, i32 0, i32 5
  %7 = load ptr, ptr %6, align 8
  %8 = getelementptr inbounds %struct.Vec_Ptr_t_, ptr %7, i32 0, i32 2
  %9 = load ptr, ptr %8, align 8
  %10 = load ptr, ptr %2, align 8
  %11 = getelementptr inbounds %struct.Abc_Obj_t_, ptr %10, i32 0, i32 4
  %12 = getelementptr inbounds %struct.Vec_Int_t_, ptr %11, i32 0, i32 2
  %13 = load ptr, ptr %12, align 8
  %14 = getelementptr inbounds i32, ptr %13, i64 0
  %15 = load i32, ptr %14, align 4
  %16 = sext i32 %15 to i64
  %17 = getelementptr inbounds ptr, ptr %9, i64 %16
  %18 = load ptr, ptr %17, align 8
  ret ptr %18
}

; Function Attrs: nounwind uwtable
define internal ptr @Abc_ObjNotCond(ptr noundef %0, i32 noundef %1) #0 {
  %3 = alloca ptr, align 8
  %4 = alloca i32, align 4
  store ptr %0, ptr %3, align 8
  store i32 %1, ptr %4, align 4
  %5 = load ptr, ptr %3, align 8
  %6 = ptrtoint ptr %5 to i64
  %7 = load i32, ptr %4, align 4
  %8 = icmp ne i32 %7, 0
  %9 = zext i1 %8 to i32
  %10 = sext i32 %9 to i64
  %11 = xor i64 %6, %10
  %12 = inttoptr i64 %11 to ptr
  ret ptr %12
}

; Function Attrs: nounwind uwtable
define internal i32 @Abc_ObjIsComplement(ptr noundef %0) #0 {
  %2 = alloca ptr, align 8
  store ptr %0, ptr %2, align 8
  %3 = load ptr, ptr %2, align 8
  %4 = ptrtoint ptr %3 to i64
  %5 = and i64 %4, 1
  %6 = trunc i64 %5 to i32
  ret i32 %6
}

; Function Attrs: nounwind uwtable
define internal ptr @Abc_ObjRegular(ptr noundef %0) #0 {
  %2 = alloca ptr, align 8
  store ptr %0, ptr %2, align 8
  %3 = load ptr, ptr %2, align 8
  %4 = ptrtoint ptr %3 to i64
  %5 = and i64 %4, -2
  %6 = inttoptr i64 %5 to ptr
  ret ptr %6
}

; Function Attrs: nounwind uwtable
define internal ptr @Abc_NtkCreatePo(ptr noundef %0) #0 {
  %2 = alloca ptr, align 8
  store ptr %0, ptr %2, align 8
  %3 = load ptr, ptr %2, align 8
  %4 = call ptr @Abc_NtkCreateObj(ptr noundef %3, i32 noundef 3)
  ret ptr %4
}

; Function Attrs: nounwind uwtable
define internal void @Vec_PtrFree(ptr noundef %0) #0 {
  %2 = alloca ptr, align 8
  store ptr %0, ptr %2, align 8
  %3 = load ptr, ptr %2, align 8
  %4 = getelementptr inbounds %struct.Vec_Ptr_t_, ptr %3, i32 0, i32 2
  %5 = load ptr, ptr %4, align 8
  %6 = icmp ne ptr %5, null
  br i1 %6, label %7, label %13

7:                                                ; preds = %1
  %8 = load ptr, ptr %2, align 8
  %9 = getelementptr inbounds %struct.Vec_Ptr_t_, ptr %8, i32 0, i32 2
  %10 = load ptr, ptr %9, align 8
  call void @free(ptr noundef %10) #5
  %11 = load ptr, ptr %2, align 8
  %12 = getelementptr inbounds %struct.Vec_Ptr_t_, ptr %11, i32 0, i32 2
  store ptr null, ptr %12, align 8
  br label %14

13:                                               ; preds = %1
  br label %14

14:                                               ; preds = %13, %7
  %15 = load ptr, ptr %2, align 8
  %16 = icmp ne ptr %15, null
  br i1 %16, label %17, label %19

17:                                               ; preds = %14
  %18 = load ptr, ptr %2, align 8
  call void @free(ptr noundef %18) #5
  store ptr null, ptr %2, align 8
  br label %20

19:                                               ; preds = %14
  br label %20

20:                                               ; preds = %19, %17
  ret void
}

; Function Attrs: nounwind uwtable
define internal ptr @Abc_ObjChild1Copy(ptr noundef %0) #0 {
  %2 = alloca ptr, align 8
  store ptr %0, ptr %2, align 8
  %3 = load ptr, ptr %2, align 8
  %4 = call ptr @Abc_ObjFanin1(ptr noundef %3)
  %5 = getelementptr inbounds %struct.Abc_Obj_t_, ptr %4, i32 0, i32 7
  %6 = load ptr, ptr %5, align 8
  %7 = load ptr, ptr %2, align 8
  %8 = call i32 @Abc_ObjFaninC1(ptr noundef %7)
  %9 = call ptr @Abc_ObjNotCond(ptr noundef %6, i32 noundef %8)
  ret ptr %9
}

; Function Attrs: nounwind uwtable
define internal ptr @Abc_ObjChild0Copy(ptr noundef %0) #0 {
  %2 = alloca ptr, align 8
  store ptr %0, ptr %2, align 8
  %3 = load ptr, ptr %2, align 8
  %4 = call ptr @Abc_ObjFanin0(ptr noundef %3)
  %5 = getelementptr inbounds %struct.Abc_Obj_t_, ptr %4, i32 0, i32 7
  %6 = load ptr, ptr %5, align 8
  %7 = load ptr, ptr %2, align 8
  %8 = call i32 @Abc_ObjFaninC0(ptr noundef %7)
  %9 = call ptr @Abc_ObjNotCond(ptr noundef %6, i32 noundef %8)
  ret ptr %9
}

; Function Attrs: nounwind uwtable
define internal ptr @Vec_PtrEntry(ptr noundef %0, i32 noundef %1) #0 {
  %3 = alloca ptr, align 8
  %4 = alloca i32, align 4
  store ptr %0, ptr %3, align 8
  store i32 %1, ptr %4, align 4
  %5 = load ptr, ptr %3, align 8
  %6 = getelementptr inbounds %struct.Vec_Ptr_t_, ptr %5, i32 0, i32 2
  %7 = load ptr, ptr %6, align 8
  %8 = load i32, ptr %4, align 4
  %9 = sext i32 %8 to i64
  %10 = getelementptr inbounds ptr, ptr %7, i64 %9
  %11 = load ptr, ptr %10, align 8
  ret ptr %11
}

; Function Attrs: nounwind uwtable
define internal i32 @Vec_PtrSize(ptr noundef %0) #0 {
  %2 = alloca ptr, align 8
  store ptr %0, ptr %2, align 8
  %3 = load ptr, ptr %2, align 8
  %4 = getelementptr inbounds %struct.Vec_Ptr_t_, ptr %3, i32 0, i32 1
  %5 = load i32, ptr %4, align 4
  ret i32 %5
}

; Function Attrs: nounwind uwtable
define internal ptr @Abc_NtkPi(ptr noundef %0, i32 noundef %1) #0 {
  %3 = alloca ptr, align 8
  %4 = alloca i32, align 4
  store ptr %0, ptr %3, align 8
  store i32 %1, ptr %4, align 4
  %5 = load ptr, ptr %3, align 8
  %6 = getelementptr inbounds %struct.Abc_Ntk_t_, ptr %5, i32 0, i32 6
  %7 = load ptr, ptr %6, align 8
  %8 = load i32, ptr %4, align 4
  %9 = call ptr @Vec_PtrEntry(ptr noundef %7, i32 noundef %8)
  ret ptr %9
}

; Function Attrs: nounwind uwtable
define internal i32 @Abc_NtkPiNum(ptr noundef %0) #0 {
  %2 = alloca ptr, align 8
  store ptr %0, ptr %2, align 8
  %3 = load ptr, ptr %2, align 8
  %4 = getelementptr inbounds %struct.Abc_Ntk_t_, ptr %3, i32 0, i32 6
  %5 = load ptr, ptr %4, align 8
  %6 = call i32 @Vec_PtrSize(ptr noundef %5)
  ret i32 %6
}

; Function Attrs: nounwind uwtable
define internal ptr @Abc_ObjChild0(ptr noundef %0) #0 {
  %2 = alloca ptr, align 8
  store ptr %0, ptr %2, align 8
  %3 = load ptr, ptr %2, align 8
  %4 = call ptr @Abc_ObjFanin0(ptr noundef %3)
  %5 = load ptr, ptr %2, align 8
  %6 = call i32 @Abc_ObjFaninC0(ptr noundef %5)
  %7 = call ptr @Abc_ObjNotCond(ptr noundef %4, i32 noundef %6)
  ret ptr %7
}

; Function Attrs: nounwind uwtable
define internal ptr @Abc_NtkPo(ptr noundef %0, i32 noundef %1) #0 {
  %3 = alloca ptr, align 8
  %4 = alloca i32, align 4
  store ptr %0, ptr %3, align 8
  store i32 %1, ptr %4, align 4
  %5 = load ptr, ptr %3, align 8
  %6 = getelementptr inbounds %struct.Abc_Ntk_t_, ptr %5, i32 0, i32 7
  %7 = load ptr, ptr %6, align 8
  %8 = load i32, ptr %4, align 4
  %9 = call ptr @Vec_PtrEntry(ptr noundef %7, i32 noundef %8)
  ret ptr %9
}

; Function Attrs: nounwind uwtable
define ptr @Abc_NtkTopAnd(ptr noundef %0) #0 {
  %2 = alloca ptr, align 8
  %3 = alloca ptr, align 8
  %4 = alloca ptr, align 8
  %5 = alloca ptr, align 8
  %6 = alloca ptr, align 8
  %7 = alloca ptr, align 8
  %8 = alloca ptr, align 8
  %9 = alloca ptr, align 8
  %10 = alloca i32, align 4
  %11 = alloca i32, align 4
  store ptr %0, ptr %3, align 8
  %12 = load ptr, ptr %3, align 8
  %13 = call ptr @Abc_NtkPo(ptr noundef %12, i32 noundef 0)
  store ptr %13, ptr %9, align 8
  %14 = load ptr, ptr %9, align 8
  %15 = call ptr @Abc_ObjChild0(ptr noundef %14)
  %16 = call ptr @Abc_NodeGetSuper(ptr noundef %15)
  store ptr %16, ptr %4, align 8
  %17 = load ptr, ptr %3, align 8
  call void @Abc_NtkCleanCopy(ptr noundef %17)
  %18 = call ptr @Abc_NtkAlloc(i32 noundef 3, i32 noundef 3, i32 noundef 1)
  store ptr %18, ptr %6, align 8
  %19 = load ptr, ptr %3, align 8
  %20 = getelementptr inbounds %struct.Abc_Ntk_t_, ptr %19, i32 0, i32 2
  %21 = load ptr, ptr %20, align 8
  %22 = call ptr @Extra_UtilStrsav(ptr noundef %21)
  %23 = load ptr, ptr %6, align 8
  %24 = getelementptr inbounds %struct.Abc_Ntk_t_, ptr %23, i32 0, i32 2
  store ptr %22, ptr %24, align 8
  %25 = load ptr, ptr %3, align 8
  %26 = getelementptr inbounds %struct.Abc_Ntk_t_, ptr %25, i32 0, i32 3
  %27 = load ptr, ptr %26, align 8
  %28 = call ptr @Extra_UtilStrsav(ptr noundef %27)
  %29 = load ptr, ptr %6, align 8
  %30 = getelementptr inbounds %struct.Abc_Ntk_t_, ptr %29, i32 0, i32 3
  store ptr %28, ptr %30, align 8
  %31 = load ptr, ptr %6, align 8
  %32 = call ptr @Abc_AigConst1(ptr noundef %31)
  %33 = load ptr, ptr %3, align 8
  %34 = call ptr @Abc_AigConst1(ptr noundef %33)
  %35 = getelementptr inbounds %struct.Abc_Obj_t_, ptr %34, i32 0, i32 7
  store ptr %32, ptr %35, align 8
  store i32 0, ptr %10, align 4
  br label %36

36:                                               ; preds = %51, %1
  %37 = load i32, ptr %10, align 4
  %38 = load ptr, ptr %3, align 8
  %39 = call i32 @Abc_NtkPiNum(ptr noundef %38)
  %40 = icmp slt i32 %37, %39
  br i1 %40, label %41, label %45

41:                                               ; preds = %36
  %42 = load ptr, ptr %3, align 8
  %43 = load i32, ptr %10, align 4
  %44 = call ptr @Abc_NtkPi(ptr noundef %42, i32 noundef %43)
  store ptr %44, ptr %7, align 8
  br label %45

45:                                               ; preds = %41, %36
  %46 = phi i1 [ false, %36 ], [ true, %41 ]
  br i1 %46, label %47, label %54

47:                                               ; preds = %45
  %48 = load ptr, ptr %6, align 8
  %49 = load ptr, ptr %7, align 8
  %50 = call ptr @Abc_NtkDupObj(ptr noundef %48, ptr noundef %49, i32 noundef 1)
  br label %51

51:                                               ; preds = %47
  %52 = load i32, ptr %10, align 4
  %53 = add nsw i32 %52, 1
  store i32 %53, ptr %10, align 4
  br label %36, !llvm.loop !25

54:                                               ; preds = %45
  %55 = load ptr, ptr %3, align 8
  %56 = load ptr, ptr %4, align 8
  %57 = call ptr @Abc_NtkDfsIterNodes(ptr noundef %55, ptr noundef %56)
  store ptr %57, ptr %5, align 8
  store i32 0, ptr %10, align 4
  br label %58

58:                                               ; preds = %80, %54
  %59 = load i32, ptr %10, align 4
  %60 = load ptr, ptr %5, align 8
  %61 = call i32 @Vec_PtrSize(ptr noundef %60)
  %62 = icmp slt i32 %59, %61
  br i1 %62, label %63, label %67

63:                                               ; preds = %58
  %64 = load ptr, ptr %5, align 8
  %65 = load i32, ptr %10, align 4
  %66 = call ptr @Vec_PtrEntry(ptr noundef %64, i32 noundef %65)
  store ptr %66, ptr %7, align 8
  br label %67

67:                                               ; preds = %63, %58
  %68 = phi i1 [ false, %58 ], [ true, %63 ]
  br i1 %68, label %69, label %83

69:                                               ; preds = %67
  %70 = load ptr, ptr %6, align 8
  %71 = getelementptr inbounds %struct.Abc_Ntk_t_, ptr %70, i32 0, i32 30
  %72 = load ptr, ptr %71, align 8
  %73 = load ptr, ptr %7, align 8
  %74 = call ptr @Abc_ObjChild0Copy(ptr noundef %73)
  %75 = load ptr, ptr %7, align 8
  %76 = call ptr @Abc_ObjChild1Copy(ptr noundef %75)
  %77 = call ptr @Abc_AigAnd(ptr noundef %72, ptr noundef %74, ptr noundef %76)
  %78 = load ptr, ptr %7, align 8
  %79 = getelementptr inbounds %struct.Abc_Obj_t_, ptr %78, i32 0, i32 7
  store ptr %77, ptr %79, align 8
  br label %80

80:                                               ; preds = %69
  %81 = load i32, ptr %10, align 4
  %82 = add nsw i32 %81, 1
  store i32 %82, ptr %10, align 4
  br label %58, !llvm.loop !26

83:                                               ; preds = %67
  %84 = load ptr, ptr %5, align 8
  call void @Vec_PtrFree(ptr noundef %84)
  store i32 0, ptr %10, align 4
  br label %85

85:                                               ; preds = %112, %83
  %86 = load i32, ptr %10, align 4
  %87 = load ptr, ptr %4, align 8
  %88 = call i32 @Vec_PtrSize(ptr noundef %87)
  %89 = icmp slt i32 %86, %88
  br i1 %89, label %90, label %94

90:                                               ; preds = %85
  %91 = load ptr, ptr %4, align 8
  %92 = load i32, ptr %10, align 4
  %93 = call ptr @Vec_PtrEntry(ptr noundef %91, i32 noundef %92)
  store ptr %93, ptr %7, align 8
  br label %94

94:                                               ; preds = %90, %85
  %95 = phi i1 [ false, %85 ], [ true, %90 ]
  br i1 %95, label %96, label %115

96:                                               ; preds = %94
  %97 = load ptr, ptr %6, align 8
  %98 = call ptr @Abc_NtkCreatePo(ptr noundef %97)
  store ptr %98, ptr %9, align 8
  %99 = load ptr, ptr %7, align 8
  %100 = call ptr @Abc_ObjRegular(ptr noundef %99)
  %101 = getelementptr inbounds %struct.Abc_Obj_t_, ptr %100, i32 0, i32 7
  %102 = load ptr, ptr %101, align 8
  %103 = load ptr, ptr %7, align 8
  %104 = call i32 @Abc_ObjIsComplement(ptr noundef %103)
  %105 = call ptr @Abc_ObjNotCond(ptr noundef %102, i32 noundef %104)
  store ptr %105, ptr %8, align 8
  %106 = load ptr, ptr %9, align 8
  %107 = load ptr, ptr %8, align 8
  call void @Abc_ObjAddFanin(ptr noundef %106, ptr noundef %107)
  %108 = load ptr, ptr %9, align 8
  %109 = load ptr, ptr %9, align 8
  %110 = call ptr @Abc_ObjName(ptr noundef %109)
  %111 = call ptr @Abc_ObjAssignName(ptr noundef %108, ptr noundef %110, ptr noundef null)
  br label %112

112:                                              ; preds = %96
  %113 = load i32, ptr %10, align 4
  %114 = add nsw i32 %113, 1
  store i32 %114, ptr %10, align 4
  br label %85, !llvm.loop !27

115:                                              ; preds = %94
  %116 = load ptr, ptr %4, align 8
  call void @Vec_PtrFree(ptr noundef %116)
  %117 = load ptr, ptr %6, align 8
  %118 = getelementptr inbounds %struct.Abc_Ntk_t_, ptr %117, i32 0, i32 30
  %119 = load ptr, ptr %118, align 8
  %120 = call i32 @Abc_AigCleanup(ptr noundef %119)
  store i32 %120, ptr %11, align 4
  %121 = icmp ne i32 %120, 0
  br i1 %121, label %122, label %125

122:                                              ; preds = %115
  %123 = load i32, ptr %11, align 4
  %124 = call i32 (ptr, ...) @printf(ptr noundef @.str.11, i32 noundef %123)
  br label %125

125:                                              ; preds = %122, %115
  %126 = load ptr, ptr %6, align 8
  %127 = call i32 @Abc_NtkCheck(ptr noundef %126)
  %128 = icmp ne i32 %127, 0
  br i1 %128, label %132, label %129

129:                                              ; preds = %125
  %130 = call i32 (ptr, ...) @printf(ptr noundef @.str.1)
  %131 = load ptr, ptr %6, align 8
  call void @Abc_NtkDelete(ptr noundef %131)
  store ptr null, ptr %2, align 8
  br label %134

132:                                              ; preds = %125
  %133 = load ptr, ptr %6, align 8
  store ptr %133, ptr %2, align 8
  br label %134

134:                                              ; preds = %132, %129
  %135 = load ptr, ptr %2, align 8
  ret ptr %135
}