; Function Attrs: nounwind uwtable
define ptr @Abc_NtkTopAnd(ptr noundef %0) local_unnamed_addr #0 {
  %2 = getelementptr i8, ptr %0, i64 48
  %.val56 = load ptr, ptr %2, align 8
  %3 = getelementptr i8, ptr %.val56, i64 8
  %.val56.val = load ptr, ptr %3, align 8
  %4 = load ptr, ptr %.val56.val, align 8
  %.val.i = load ptr, ptr %4, align 8
  %5 = getelementptr i8, ptr %4, i64 32
  %.val2.i = load ptr, ptr %5, align 8
  %6 = getelementptr i8, ptr %.val.i, i64 32
  %.val.val.i = load ptr, ptr %6, align 8
  %.val2.val.i = load i32, ptr %.val2.i, align 4
  %7 = getelementptr i8, ptr %.val.val.i, i64 8
  %.val.val.val.i = load ptr, ptr %7, align 8
  %8 = sext i32 %.val2.val.i to i64
  %9 = getelementptr inbounds ptr, ptr %.val.val.val.i, i64 %8
  %10 = load ptr, ptr %9, align 8
  %11 = getelementptr i8, ptr %4, i64 20
  %.val3.i = load i32, ptr %11, align 4
  %12 = lshr i32 %.val3.i, 10
  %13 = and i32 %12, 1
  %14 = ptrtoint ptr %10 to i64
  %15 = zext nneg i32 %13 to i64
  %16 = xor i64 %15, %14
  %17 = inttoptr i64 %16 to ptr
  %18 = tail call ptr @Abc_NodeGetSuper(ptr noundef %17)
  tail call void @Abc_NtkCleanCopy(ptr noundef %0) #11
  %19 = tail call ptr @Abc_NtkAlloc(i32 noundef 3, i32 noundef 3, i32 noundef 1) #11
  %20 = getelementptr inbounds nuw i8, ptr %0, i64 8
  %21 = load ptr, ptr %20, align 8
  %22 = tail call ptr @Extra_UtilStrsav(ptr noundef %21) #11
  %23 = getelementptr inbounds nuw i8, ptr %19, i64 8
  store ptr %22, ptr %23, align 8
  %24 = getelementptr inbounds nuw i8, ptr %0, i64 16
  %25 = load ptr, ptr %24, align 8
  %26 = tail call ptr @Extra_UtilStrsav(ptr noundef %25) #11
  %27 = getelementptr inbounds nuw i8, ptr %19, i64 16
  store ptr %26, ptr %27, align 8
  %28 = tail call ptr @Abc_AigConst1(ptr noundef %19) #11
  %29 = tail call ptr @Abc_AigConst1(ptr noundef %0) #11
  %30 = getelementptr inbounds nuw i8, ptr %29, i64 64
  store ptr %28, ptr %30, align 8
  %31 = getelementptr i8, ptr %0, i64 40
  %.val5773 = load ptr, ptr %31, align 8
  %32 = getelementptr i8, ptr %.val5773, i64 4
  %.val57.val74 = load i32, ptr %32, align 4
  %33 = icmp sgt i32 %.val57.val74, 0
  br i1 %33, label %.lr.ph, label %.critedge

.lr.ph:                                           ; preds = %1, %.lr.ph
  %indvars.iv = phi i64 [ %indvars.iv.next, %.lr.ph ], [ 0, %1 ]
  %.val5776 = phi ptr [ %.val57, %.lr.ph ], [ %.val5773, %1 ]
  %34 = getelementptr i8, ptr %.val5776, i64 8
  %.val58.val = load ptr, ptr %34, align 8
  %35 = getelementptr inbounds nuw ptr, ptr %.val58.val, i64 %indvars.iv
  %36 = load ptr, ptr %35, align 8
  %37 = tail call ptr @Abc_NtkDupObj(ptr noundef %19, ptr noundef %36, i32 noundef 1) #11
  %indvars.iv.next = add nuw nsw i64 %indvars.iv, 1
  %.val57 = load ptr, ptr %31, align 8
  %38 = getelementptr i8, ptr %.val57, i64 4
  %.val57.val = load i32, ptr %38, align 4
  %39 = sext i32 %.val57.val to i64
  %40 = icmp slt i64 %indvars.iv.next, %39
  br i1 %40, label %.lr.ph, label %.critedge, !llvm.loop !26

.critedge:                                        ; preds = %.lr.ph, %1
  %41 = tail call ptr @Abc_NtkDfsIterNodes(ptr noundef nonnull %0, ptr noundef %18) #11
  %42 = getelementptr i8, ptr %41, i64 4
  %.val5377 = load i32, ptr %42, align 4
  %43 = icmp sgt i32 %.val5377, 0
  br i1 %43, label %.lr.ph79, label %.critedge2

.lr.ph79:                                         ; preds = %.critedge
  %44 = getelementptr i8, ptr %41, i64 8
  %45 = getelementptr inbounds nuw i8, ptr %19, i64 256
  br label %46

46:                                               ; preds = %.lr.ph79, %46
  %indvars.iv84 = phi i64 [ 0, %.lr.ph79 ], [ %indvars.iv.next85, %46 ]
  %.val55 = load ptr, ptr %44, align 8
  %47 = getelementptr inbounds nuw ptr, ptr %.val55, i64 %indvars.iv84
  %48 = load ptr, ptr %47, align 8
  %49 = load ptr, ptr %45, align 8
  %.val.i59 = load ptr, ptr %48, align 8
  %50 = getelementptr i8, ptr %48, i64 32
  %.val2.i60 = load ptr, ptr %50, align 8
  %51 = getelementptr i8, ptr %.val.i59, i64 32
  %.val.val.i61 = load ptr, ptr %51, align 8
  %.val2.val.i62 = load i32, ptr %.val2.i60, align 4
  %52 = getelementptr i8, ptr %.val.val.i61, i64 8
  %.val.val.val.i63 = load ptr, ptr %52, align 8
  %53 = sext i32 %.val2.val.i62 to i64
  %54 = getelementptr inbounds ptr, ptr %.val.val.val.i63, i64 %53
  %55 = load ptr, ptr %54, align 8
  %56 = getelementptr inbounds nuw i8, ptr %55, i64 64
  %57 = load ptr, ptr %56, align 8
  %58 = getelementptr i8, ptr %48, i64 20
  %.val3.i64 = load i32, ptr %58, align 4
  %59 = lshr i32 %.val3.i64, 10
  %60 = and i32 %59, 1
  %61 = ptrtoint ptr %57 to i64
  %62 = zext nneg i32 %60 to i64
  %63 = xor i64 %62, %61
  %64 = inttoptr i64 %63 to ptr
  %65 = getelementptr i8, ptr %.val2.i60, i64 4
  %.val2.val.i68 = load i32, ptr %65, align 4
  %66 = sext i32 %.val2.val.i68 to i64
  %67 = getelementptr inbounds ptr, ptr %.val.val.val.i63, i64 %66
  %68 = load ptr, ptr %67, align 8
  %69 = getelementptr inbounds nuw i8, ptr %68, i64 64
  %70 = load ptr, ptr %69, align 8
  %71 = lshr i32 %.val3.i64, 11
  %72 = and i32 %71, 1
  %73 = ptrtoint ptr %70 to i64
  %74 = zext nneg i32 %72 to i64
  %75 = xor i64 %73, %74
  %76 = inttoptr i64 %75 to ptr
  %77 = tail call ptr @Abc_AigAnd(ptr noundef %49, ptr noundef %64, ptr noundef %76) #11
  %78 = getelementptr inbounds nuw i8, ptr %48, i64 64
  store ptr %77, ptr %78, align 8
  %indvars.iv.next85 = add nuw nsw i64 %indvars.iv84, 1
  %.val53 = load i32, ptr %42, align 4
  %79 = sext i32 %.val53 to i64
  %80 = icmp slt i64 %indvars.iv.next85, %79
  br i1 %80, label %46, label %.critedge2, !llvm.loop !27

.critedge2:                                       ; preds = %46, %.critedge
  %81 = getelementptr inbounds nuw i8, ptr %41, i64 8
  %82 = load ptr, ptr %81, align 8
  %.not.i = icmp eq ptr %82, null
  br i1 %.not.i, label %Vec_PtrFree.exit, label %83

83:                                               ; preds = %.critedge2
  tail call void @free(ptr noundef nonnull %82) #11
  br label %Vec_PtrFree.exit

Vec_PtrFree.exit:                                 ; preds = %.critedge2, %83
  tail call void @free(ptr noundef nonnull %41) #11
  %84 = getelementptr i8, ptr %18, i64 4
  %.val80 = load i32, ptr %84, align 4
  %85 = icmp sgt i32 %.val80, 0
  br i1 %85, label %.lr.ph82, label %.critedge4

.lr.ph82:                                         ; preds = %Vec_PtrFree.exit
  %86 = getelementptr i8, ptr %18, i64 8
  br label %87

87:                                               ; preds = %.lr.ph82, %87
  %indvars.iv87 = phi i64 [ 0, %.lr.ph82 ], [ %indvars.iv.next88, %87 ]
  %.val54 = load ptr, ptr %86, align 8
  %88 = getelementptr inbounds nuw ptr, ptr %.val54, i64 %indvars.iv87
  %89 = load ptr, ptr %88, align 8
  %90 = tail call ptr @Abc_NtkCreateObj(ptr noundef %19, i32 noundef 3) #11
  %91 = ptrtoint ptr %89 to i64
  %92 = and i64 %91, -2
  %93 = inttoptr i64 %92 to ptr
  %94 = getelementptr inbounds nuw i8, ptr %93, i64 64
  %95 = load ptr, ptr %94, align 8
  %96 = and i64 %91, 1
  %97 = ptrtoint ptr %95 to i64
  %98 = xor i64 %96, %97
  %99 = inttoptr i64 %98 to ptr
  tail call void @Abc_ObjAddFanin(ptr noundef %90, ptr noundef %99) #11
  %100 = tail call ptr @Abc_ObjName(ptr noundef %90) #11
  %101 = tail call ptr @Abc_ObjAssignName(ptr noundef %90, ptr noundef %100, ptr noundef null) #11
  %indvars.iv.next88 = add nuw nsw i64 %indvars.iv87, 1
  %.val = load i32, ptr %84, align 4
  %102 = sext i32 %.val to i64
  %103 = icmp slt i64 %indvars.iv.next88, %102
  br i1 %103, label %87, label %.critedge4, !llvm.loop !28

.critedge4:                                       ; preds = %87, %Vec_PtrFree.exit
  %104 = getelementptr inbounds nuw i8, ptr %18, i64 8
  %105 = load ptr, ptr %104, align 8
  %.not.i71 = icmp eq ptr %105, null
  br i1 %.not.i71, label %Vec_PtrFree.exit72, label %106

106:                                              ; preds = %.critedge4
  tail call void @free(ptr noundef nonnull %105) #11
  br label %Vec_PtrFree.exit72

Vec_PtrFree.exit72:                               ; preds = %.critedge4, %106
  tail call void @free(ptr noundef nonnull %18) #11
  %107 = getelementptr inbounds nuw i8, ptr %19, i64 256
  %108 = load ptr, ptr %107, align 8
  %109 = tail call i32 @Abc_AigCleanup(ptr noundef %108) #11
  %.not = icmp eq i32 %109, 0
  br i1 %.not, label %112, label %110

110:                                              ; preds = %Vec_PtrFree.exit72
  %111 = tail call i32 (ptr, ...) @printf(ptr noundef nonnull dereferenceable(1) @.str.11, i32 noundef %109)
  br label %112

112:                                              ; preds = %110, %Vec_PtrFree.exit72
  %113 = tail call i32 @Abc_NtkCheck(ptr noundef nonnull %19) #11
  %.not52 = icmp eq i32 %113, 0
  br i1 %.not52, label %114, label %115

114:                                              ; preds = %112
  %puts = tail call i32 @puts(ptr nonnull dereferenceable(1) @str.13)
  tail call void @Abc_NtkDelete(ptr noundef nonnull %19) #11
  br label %115

115:                                              ; preds = %112, %114
  %.0 = phi ptr [ null, %114 ], [ %19, %112 ]
  ret ptr %.0
}